ARM GAS  /tmp/cc7zh2ja.s 			page 1


   1              		.cpu cortex-m3
   2              		.arch armv7-m
   3              		.fpu softvfp
   4              		.eabi_attribute 20, 1
   5              		.eabi_attribute 21, 1
   6              		.eabi_attribute 23, 3
   7              		.eabi_attribute 24, 1
   8              		.eabi_attribute 25, 1
   9              		.eabi_attribute 26, 1
  10              		.eabi_attribute 30, 1
  11              		.eabi_attribute 34, 1
  12              		.eabi_attribute 18, 4
  13              		.file	"i2c.c"
  14              		.text
  15              	.Ltext0:
  16              		.cfi_sections	.debug_frame
  17              		.file 1 "Core/Src/i2c.c"
  18              		.section	.text.MX_I2C1_Init,"ax",%progbits
  19              		.align	1
  20              		.global	MX_I2C1_Init
  21              		.syntax unified
  22              		.thumb
  23              		.thumb_func
  25              	MX_I2C1_Init:
  26              	.LFB65:
   1:Core/Src/i2c.c **** /* USER CODE BEGIN Header */
   2:Core/Src/i2c.c **** /**
   3:Core/Src/i2c.c ****   ******************************************************************************
   4:Core/Src/i2c.c ****   * @file    i2c.c
   5:Core/Src/i2c.c ****   * @brief   This file provides code for the configuration
   6:Core/Src/i2c.c ****   *          of the I2C instances.
   7:Core/Src/i2c.c ****   ******************************************************************************
   8:Core/Src/i2c.c ****   * @attention
   9:Core/Src/i2c.c ****   *
  10:Core/Src/i2c.c ****   * Copyright (c) 2024 STMicroelectronics.
  11:Core/Src/i2c.c ****   * All rights reserved.
  12:Core/Src/i2c.c ****   *
  13:Core/Src/i2c.c ****   * This software is licensed under terms that can be found in the LICENSE file
  14:Core/Src/i2c.c ****   * in the root directory of this software component.
  15:Core/Src/i2c.c ****   * If no LICENSE file comes with this software, it is provided AS-IS.
  16:Core/Src/i2c.c ****   *
  17:Core/Src/i2c.c ****   ******************************************************************************
  18:Core/Src/i2c.c ****   */
  19:Core/Src/i2c.c **** /* USER CODE END Header */
  20:Core/Src/i2c.c **** /* Includes ------------------------------------------------------------------*/
  21:Core/Src/i2c.c **** #include "i2c.h"
  22:Core/Src/i2c.c **** 
  23:Core/Src/i2c.c **** /* USER CODE BEGIN 0 */
  24:Core/Src/i2c.c **** 
  25:Core/Src/i2c.c **** /* USER CODE END 0 */
  26:Core/Src/i2c.c **** 
  27:Core/Src/i2c.c **** I2C_HandleTypeDef hi2c1;
  28:Core/Src/i2c.c **** 
  29:Core/Src/i2c.c **** /* I2C1 init function */
  30:Core/Src/i2c.c **** void MX_I2C1_Init(void)
  31:Core/Src/i2c.c **** {
  27              		.loc 1 31 1 view -0
ARM GAS  /tmp/cc7zh2ja.s 			page 2


  28              		.cfi_startproc
  29              		@ args = 0, pretend = 0, frame = 0
  30              		@ frame_needed = 0, uses_anonymous_args = 0
  31 0000 08B5     		push	{r3, lr}
  32              		.cfi_def_cfa_offset 8
  33              		.cfi_offset 3, -8
  34              		.cfi_offset 14, -4
  32:Core/Src/i2c.c **** 
  33:Core/Src/i2c.c ****   /* USER CODE BEGIN I2C1_Init 0 */
  34:Core/Src/i2c.c **** 
  35:Core/Src/i2c.c ****   /* USER CODE END I2C1_Init 0 */
  36:Core/Src/i2c.c **** 
  37:Core/Src/i2c.c ****   /* USER CODE BEGIN I2C1_Init 1 */
  38:Core/Src/i2c.c **** 
  39:Core/Src/i2c.c ****   /* USER CODE END I2C1_Init 1 */
  40:Core/Src/i2c.c ****   hi2c1.Instance = I2C1;
  35              		.loc 1 40 3 view .LVU1
  36              		.loc 1 40 18 is_stmt 0 view .LVU2
  37 0002 0B48     		ldr	r0, .L5
  38 0004 0B4B     		ldr	r3, .L5+4
  39 0006 0360     		str	r3, [r0]
  41:Core/Src/i2c.c ****   hi2c1.Init.ClockSpeed = 100000;
  40              		.loc 1 41 3 is_stmt 1 view .LVU3
  41              		.loc 1 41 25 is_stmt 0 view .LVU4
  42 0008 0B4B     		ldr	r3, .L5+8
  43 000a 4360     		str	r3, [r0, #4]
  42:Core/Src/i2c.c ****   hi2c1.Init.DutyCycle = I2C_DUTYCYCLE_2;
  44              		.loc 1 42 3 is_stmt 1 view .LVU5
  45              		.loc 1 42 24 is_stmt 0 view .LVU6
  46 000c 0023     		movs	r3, #0
  47 000e 8360     		str	r3, [r0, #8]
  43:Core/Src/i2c.c ****   hi2c1.Init.OwnAddress1 = 36;
  48              		.loc 1 43 3 is_stmt 1 view .LVU7
  49              		.loc 1 43 26 is_stmt 0 view .LVU8
  50 0010 2422     		movs	r2, #36
  51 0012 C260     		str	r2, [r0, #12]
  44:Core/Src/i2c.c ****   hi2c1.Init.AddressingMode = I2C_ADDRESSINGMODE_7BIT;
  52              		.loc 1 44 3 is_stmt 1 view .LVU9
  53              		.loc 1 44 29 is_stmt 0 view .LVU10
  54 0014 4FF48042 		mov	r2, #16384
  55 0018 0261     		str	r2, [r0, #16]
  45:Core/Src/i2c.c ****   hi2c1.Init.DualAddressMode = I2C_DUALADDRESS_DISABLE;
  56              		.loc 1 45 3 is_stmt 1 view .LVU11
  57              		.loc 1 45 30 is_stmt 0 view .LVU12
  58 001a 4361     		str	r3, [r0, #20]
  46:Core/Src/i2c.c ****   hi2c1.Init.OwnAddress2 = 0;
  59              		.loc 1 46 3 is_stmt 1 view .LVU13
  60              		.loc 1 46 26 is_stmt 0 view .LVU14
  61 001c 8361     		str	r3, [r0, #24]
  47:Core/Src/i2c.c ****   hi2c1.Init.GeneralCallMode = I2C_GENERALCALL_DISABLE;
  62              		.loc 1 47 3 is_stmt 1 view .LVU15
  63              		.loc 1 47 30 is_stmt 0 view .LVU16
  64 001e C361     		str	r3, [r0, #28]
  48:Core/Src/i2c.c ****   hi2c1.Init.NoStretchMode = I2C_NOSTRETCH_DISABLE;
  65              		.loc 1 48 3 is_stmt 1 view .LVU17
  66              		.loc 1 48 28 is_stmt 0 view .LVU18
  67 0020 0362     		str	r3, [r0, #32]
ARM GAS  /tmp/cc7zh2ja.s 			page 3


  49:Core/Src/i2c.c ****   if (HAL_I2C_Init(&hi2c1) != HAL_OK)
  68              		.loc 1 49 3 is_stmt 1 view .LVU19
  69              		.loc 1 49 7 is_stmt 0 view .LVU20
  70 0022 FFF7FEFF 		bl	HAL_I2C_Init
  71              	.LVL0:
  72              		.loc 1 49 6 discriminator 1 view .LVU21
  73 0026 00B9     		cbnz	r0, .L4
  74              	.L1:
  50:Core/Src/i2c.c ****   {
  51:Core/Src/i2c.c ****     Error_Handler();
  52:Core/Src/i2c.c ****   }
  53:Core/Src/i2c.c ****   /* USER CODE BEGIN I2C1_Init 2 */
  54:Core/Src/i2c.c **** 
  55:Core/Src/i2c.c ****   /* USER CODE END I2C1_Init 2 */
  56:Core/Src/i2c.c **** 
  57:Core/Src/i2c.c **** }
  75              		.loc 1 57 1 view .LVU22
  76 0028 08BD     		pop	{r3, pc}
  77              	.L4:
  51:Core/Src/i2c.c ****   }
  78              		.loc 1 51 5 is_stmt 1 view .LVU23
  79 002a FFF7FEFF 		bl	Error_Handler
  80              	.LVL1:
  81              		.loc 1 57 1 is_stmt 0 view .LVU24
  82 002e FBE7     		b	.L1
  83              	.L6:
  84              		.align	2
  85              	.L5:
  86 0030 00000000 		.word	hi2c1
  87 0034 00540040 		.word	1073763328
  88 0038 A0860100 		.word	100000
  89              		.cfi_endproc
  90              	.LFE65:
  92              		.section	.text.HAL_I2C_MspInit,"ax",%progbits
  93              		.align	1
  94              		.global	HAL_I2C_MspInit
  95              		.syntax unified
  96              		.thumb
  97              		.thumb_func
  99              	HAL_I2C_MspInit:
 100              	.LVL2:
 101              	.LFB66:
  58:Core/Src/i2c.c **** 
  59:Core/Src/i2c.c **** void HAL_I2C_MspInit(I2C_HandleTypeDef* i2cHandle)
  60:Core/Src/i2c.c **** {
 102              		.loc 1 60 1 is_stmt 1 view -0
 103              		.cfi_startproc
 104              		@ args = 0, pretend = 0, frame = 24
 105              		@ frame_needed = 0, uses_anonymous_args = 0
 106              		.loc 1 60 1 is_stmt 0 view .LVU26
 107 0000 10B5     		push	{r4, lr}
 108              		.cfi_def_cfa_offset 8
 109              		.cfi_offset 4, -8
 110              		.cfi_offset 14, -4
 111 0002 86B0     		sub	sp, sp, #24
 112              		.cfi_def_cfa_offset 32
  61:Core/Src/i2c.c **** 
ARM GAS  /tmp/cc7zh2ja.s 			page 4


  62:Core/Src/i2c.c ****   GPIO_InitTypeDef GPIO_InitStruct = {0};
 113              		.loc 1 62 3 is_stmt 1 view .LVU27
 114              		.loc 1 62 20 is_stmt 0 view .LVU28
 115 0004 0023     		movs	r3, #0
 116 0006 0293     		str	r3, [sp, #8]
 117 0008 0393     		str	r3, [sp, #12]
 118 000a 0493     		str	r3, [sp, #16]
 119 000c 0593     		str	r3, [sp, #20]
  63:Core/Src/i2c.c ****   if(i2cHandle->Instance==I2C1)
 120              		.loc 1 63 3 is_stmt 1 view .LVU29
 121              		.loc 1 63 15 is_stmt 0 view .LVU30
 122 000e 0268     		ldr	r2, [r0]
 123              		.loc 1 63 5 view .LVU31
 124 0010 194B     		ldr	r3, .L11
 125 0012 9A42     		cmp	r2, r3
 126 0014 01D0     		beq	.L10
 127              	.LVL3:
 128              	.L7:
  64:Core/Src/i2c.c ****   {
  65:Core/Src/i2c.c ****   /* USER CODE BEGIN I2C1_MspInit 0 */
  66:Core/Src/i2c.c **** 
  67:Core/Src/i2c.c ****   /* USER CODE END I2C1_MspInit 0 */
  68:Core/Src/i2c.c **** 
  69:Core/Src/i2c.c ****     __HAL_RCC_GPIOB_CLK_ENABLE();
  70:Core/Src/i2c.c ****     /**I2C1 GPIO Configuration
  71:Core/Src/i2c.c ****     PB6     ------> I2C1_SCL
  72:Core/Src/i2c.c ****     PB7     ------> I2C1_SDA
  73:Core/Src/i2c.c ****     */
  74:Core/Src/i2c.c ****     GPIO_InitStruct.Pin = GPIO_PIN_6|GPIO_PIN_7;
  75:Core/Src/i2c.c ****     GPIO_InitStruct.Mode = GPIO_MODE_AF_OD;
  76:Core/Src/i2c.c ****     GPIO_InitStruct.Speed = GPIO_SPEED_FREQ_HIGH;
  77:Core/Src/i2c.c ****     HAL_GPIO_Init(GPIOB, &GPIO_InitStruct);
  78:Core/Src/i2c.c **** 
  79:Core/Src/i2c.c ****     /* I2C1 clock enable */
  80:Core/Src/i2c.c ****     __HAL_RCC_I2C1_CLK_ENABLE();
  81:Core/Src/i2c.c **** 
  82:Core/Src/i2c.c ****     /* I2C1 interrupt Init */
  83:Core/Src/i2c.c ****     HAL_NVIC_SetPriority(I2C1_EV_IRQn, 0, 0);
  84:Core/Src/i2c.c ****     HAL_NVIC_EnableIRQ(I2C1_EV_IRQn);
  85:Core/Src/i2c.c ****     HAL_NVIC_SetPriority(I2C1_ER_IRQn, 0, 0);
  86:Core/Src/i2c.c ****     HAL_NVIC_EnableIRQ(I2C1_ER_IRQn);
  87:Core/Src/i2c.c ****   /* USER CODE BEGIN I2C1_MspInit 1 */
  88:Core/Src/i2c.c **** 
  89:Core/Src/i2c.c ****   /* USER CODE END I2C1_MspInit 1 */
  90:Core/Src/i2c.c ****   }
  91:Core/Src/i2c.c **** }
 129              		.loc 1 91 1 view .LVU32
 130 0016 06B0     		add	sp, sp, #24
 131              		.cfi_remember_state
 132              		.cfi_def_cfa_offset 8
 133              		@ sp needed
 134 0018 10BD     		pop	{r4, pc}
 135              	.LVL4:
 136              	.L10:
 137              		.cfi_restore_state
  69:Core/Src/i2c.c ****     /**I2C1 GPIO Configuration
 138              		.loc 1 69 5 is_stmt 1 view .LVU33
ARM GAS  /tmp/cc7zh2ja.s 			page 5


 139              	.LBB2:
  69:Core/Src/i2c.c ****     /**I2C1 GPIO Configuration
 140              		.loc 1 69 5 view .LVU34
  69:Core/Src/i2c.c ****     /**I2C1 GPIO Configuration
 141              		.loc 1 69 5 view .LVU35
 142 001a 184C     		ldr	r4, .L11+4
 143 001c A369     		ldr	r3, [r4, #24]
 144 001e 43F00803 		orr	r3, r3, #8
 145 0022 A361     		str	r3, [r4, #24]
  69:Core/Src/i2c.c ****     /**I2C1 GPIO Configuration
 146              		.loc 1 69 5 view .LVU36
 147 0024 A369     		ldr	r3, [r4, #24]
 148 0026 03F00803 		and	r3, r3, #8
 149 002a 0093     		str	r3, [sp]
  69:Core/Src/i2c.c ****     /**I2C1 GPIO Configuration
 150              		.loc 1 69 5 view .LVU37
 151 002c 009B     		ldr	r3, [sp]
 152              	.LBE2:
  69:Core/Src/i2c.c ****     /**I2C1 GPIO Configuration
 153              		.loc 1 69 5 view .LVU38
  74:Core/Src/i2c.c ****     GPIO_InitStruct.Mode = GPIO_MODE_AF_OD;
 154              		.loc 1 74 5 view .LVU39
  74:Core/Src/i2c.c ****     GPIO_InitStruct.Mode = GPIO_MODE_AF_OD;
 155              		.loc 1 74 25 is_stmt 0 view .LVU40
 156 002e C023     		movs	r3, #192
 157 0030 0293     		str	r3, [sp, #8]
  75:Core/Src/i2c.c ****     GPIO_InitStruct.Speed = GPIO_SPEED_FREQ_HIGH;
 158              		.loc 1 75 5 is_stmt 1 view .LVU41
  75:Core/Src/i2c.c ****     GPIO_InitStruct.Speed = GPIO_SPEED_FREQ_HIGH;
 159              		.loc 1 75 26 is_stmt 0 view .LVU42
 160 0032 1223     		movs	r3, #18
 161 0034 0393     		str	r3, [sp, #12]
  76:Core/Src/i2c.c ****     HAL_GPIO_Init(GPIOB, &GPIO_InitStruct);
 162              		.loc 1 76 5 is_stmt 1 view .LVU43
  76:Core/Src/i2c.c ****     HAL_GPIO_Init(GPIOB, &GPIO_InitStruct);
 163              		.loc 1 76 27 is_stmt 0 view .LVU44
 164 0036 0323     		movs	r3, #3
 165 0038 0593     		str	r3, [sp, #20]
  77:Core/Src/i2c.c **** 
 166              		.loc 1 77 5 is_stmt 1 view .LVU45
 167 003a 02A9     		add	r1, sp, #8
 168 003c 1048     		ldr	r0, .L11+8
 169              	.LVL5:
  77:Core/Src/i2c.c **** 
 170              		.loc 1 77 5 is_stmt 0 view .LVU46
 171 003e FFF7FEFF 		bl	HAL_GPIO_Init
 172              	.LVL6:
  80:Core/Src/i2c.c **** 
 173              		.loc 1 80 5 is_stmt 1 view .LVU47
 174              	.LBB3:
  80:Core/Src/i2c.c **** 
 175              		.loc 1 80 5 view .LVU48
  80:Core/Src/i2c.c **** 
 176              		.loc 1 80 5 view .LVU49
 177 0042 E369     		ldr	r3, [r4, #28]
 178 0044 43F40013 		orr	r3, r3, #2097152
 179 0048 E361     		str	r3, [r4, #28]
ARM GAS  /tmp/cc7zh2ja.s 			page 6


  80:Core/Src/i2c.c **** 
 180              		.loc 1 80 5 view .LVU50
 181 004a E369     		ldr	r3, [r4, #28]
 182 004c 03F40013 		and	r3, r3, #2097152
 183 0050 0193     		str	r3, [sp, #4]
  80:Core/Src/i2c.c **** 
 184              		.loc 1 80 5 view .LVU51
 185 0052 019B     		ldr	r3, [sp, #4]
 186              	.LBE3:
  80:Core/Src/i2c.c **** 
 187              		.loc 1 80 5 view .LVU52
  83:Core/Src/i2c.c ****     HAL_NVIC_EnableIRQ(I2C1_EV_IRQn);
 188              		.loc 1 83 5 view .LVU53
 189 0054 0022     		movs	r2, #0
 190 0056 1146     		mov	r1, r2
 191 0058 1F20     		movs	r0, #31
 192 005a FFF7FEFF 		bl	HAL_NVIC_SetPriority
 193              	.LVL7:
  84:Core/Src/i2c.c ****     HAL_NVIC_SetPriority(I2C1_ER_IRQn, 0, 0);
 194              		.loc 1 84 5 view .LVU54
 195 005e 1F20     		movs	r0, #31
 196 0060 FFF7FEFF 		bl	HAL_NVIC_EnableIRQ
 197              	.LVL8:
  85:Core/Src/i2c.c ****     HAL_NVIC_EnableIRQ(I2C1_ER_IRQn);
 198              		.loc 1 85 5 view .LVU55
 199 0064 0022     		movs	r2, #0
 200 0066 1146     		mov	r1, r2
 201 0068 2020     		movs	r0, #32
 202 006a FFF7FEFF 		bl	HAL_NVIC_SetPriority
 203              	.LVL9:
  86:Core/Src/i2c.c ****   /* USER CODE BEGIN I2C1_MspInit 1 */
 204              		.loc 1 86 5 view .LVU56
 205 006e 2020     		movs	r0, #32
 206 0070 FFF7FEFF 		bl	HAL_NVIC_EnableIRQ
 207              	.LVL10:
 208              		.loc 1 91 1 is_stmt 0 view .LVU57
 209 0074 CFE7     		b	.L7
 210              	.L12:
 211 0076 00BF     		.align	2
 212              	.L11:
 213 0078 00540040 		.word	1073763328
 214 007c 00100240 		.word	1073876992
 215 0080 000C0140 		.word	1073810432
 216              		.cfi_endproc
 217              	.LFE66:
 219              		.section	.text.HAL_I2C_MspDeInit,"ax",%progbits
 220              		.align	1
 221              		.global	HAL_I2C_MspDeInit
 222              		.syntax unified
 223              		.thumb
 224              		.thumb_func
 226              	HAL_I2C_MspDeInit:
 227              	.LVL11:
 228              	.LFB67:
  92:Core/Src/i2c.c **** 
  93:Core/Src/i2c.c **** void HAL_I2C_MspDeInit(I2C_HandleTypeDef* i2cHandle)
  94:Core/Src/i2c.c **** {
ARM GAS  /tmp/cc7zh2ja.s 			page 7


 229              		.loc 1 94 1 is_stmt 1 view -0
 230              		.cfi_startproc
 231              		@ args = 0, pretend = 0, frame = 0
 232              		@ frame_needed = 0, uses_anonymous_args = 0
  95:Core/Src/i2c.c **** 
  96:Core/Src/i2c.c ****   if(i2cHandle->Instance==I2C1)
 233              		.loc 1 96 3 view .LVU59
 234              		.loc 1 96 15 is_stmt 0 view .LVU60
 235 0000 0268     		ldr	r2, [r0]
 236              		.loc 1 96 5 view .LVU61
 237 0002 0D4B     		ldr	r3, .L20
 238 0004 9A42     		cmp	r2, r3
 239 0006 00D0     		beq	.L19
 240 0008 7047     		bx	lr
 241              	.L19:
  94:Core/Src/i2c.c **** 
 242              		.loc 1 94 1 view .LVU62
 243 000a 10B5     		push	{r4, lr}
 244              		.cfi_def_cfa_offset 8
 245              		.cfi_offset 4, -8
 246              		.cfi_offset 14, -4
  97:Core/Src/i2c.c ****   {
  98:Core/Src/i2c.c ****   /* USER CODE BEGIN I2C1_MspDeInit 0 */
  99:Core/Src/i2c.c **** 
 100:Core/Src/i2c.c ****   /* USER CODE END I2C1_MspDeInit 0 */
 101:Core/Src/i2c.c ****     /* Peripheral clock disable */
 102:Core/Src/i2c.c ****     __HAL_RCC_I2C1_CLK_DISABLE();
 247              		.loc 1 102 5 is_stmt 1 view .LVU63
 248 000c 0B4A     		ldr	r2, .L20+4
 249 000e D369     		ldr	r3, [r2, #28]
 250 0010 23F40013 		bic	r3, r3, #2097152
 251 0014 D361     		str	r3, [r2, #28]
 103:Core/Src/i2c.c **** 
 104:Core/Src/i2c.c ****     /**I2C1 GPIO Configuration
 105:Core/Src/i2c.c ****     PB6     ------> I2C1_SCL
 106:Core/Src/i2c.c ****     PB7     ------> I2C1_SDA
 107:Core/Src/i2c.c ****     */
 108:Core/Src/i2c.c ****     HAL_GPIO_DeInit(GPIOB, GPIO_PIN_6);
 252              		.loc 1 108 5 view .LVU64
 253 0016 0A4C     		ldr	r4, .L20+8
 254 0018 4021     		movs	r1, #64
 255 001a 2046     		mov	r0, r4
 256              	.LVL12:
 257              		.loc 1 108 5 is_stmt 0 view .LVU65
 258 001c FFF7FEFF 		bl	HAL_GPIO_DeInit
 259              	.LVL13:
 109:Core/Src/i2c.c **** 
 110:Core/Src/i2c.c ****     HAL_GPIO_DeInit(GPIOB, GPIO_PIN_7);
 260              		.loc 1 110 5 is_stmt 1 view .LVU66
 261 0020 8021     		movs	r1, #128
 262 0022 2046     		mov	r0, r4
 263 0024 FFF7FEFF 		bl	HAL_GPIO_DeInit
 264              	.LVL14:
 111:Core/Src/i2c.c **** 
 112:Core/Src/i2c.c ****     /* I2C1 interrupt Deinit */
 113:Core/Src/i2c.c ****     HAL_NVIC_DisableIRQ(I2C1_EV_IRQn);
 265              		.loc 1 113 5 view .LVU67
ARM GAS  /tmp/cc7zh2ja.s 			page 8


 266 0028 1F20     		movs	r0, #31
 267 002a FFF7FEFF 		bl	HAL_NVIC_DisableIRQ
 268              	.LVL15:
 114:Core/Src/i2c.c ****     HAL_NVIC_DisableIRQ(I2C1_ER_IRQn);
 269              		.loc 1 114 5 view .LVU68
 270 002e 2020     		movs	r0, #32
 271 0030 FFF7FEFF 		bl	HAL_NVIC_DisableIRQ
 272              	.LVL16:
 115:Core/Src/i2c.c ****   /* USER CODE BEGIN I2C1_MspDeInit 1 */
 116:Core/Src/i2c.c **** 
 117:Core/Src/i2c.c ****   /* USER CODE END I2C1_MspDeInit 1 */
 118:Core/Src/i2c.c ****   }
 119:Core/Src/i2c.c **** }
 273              		.loc 1 119 1 is_stmt 0 view .LVU69
 274 0034 10BD     		pop	{r4, pc}
 275              	.L21:
 276 0036 00BF     		.align	2
 277              	.L20:
 278 0038 00540040 		.word	1073763328
 279 003c 00100240 		.word	1073876992
 280 0040 000C0140 		.word	1073810432
 281              		.cfi_endproc
 282              	.LFE67:
 284              		.global	hi2c1
 285              		.section	.bss.hi2c1,"aw",%nobits
 286              		.align	2
 289              	hi2c1:
 290 0000 00000000 		.space	84
 290      00000000 
 290      00000000 
 290      00000000 
 290      00000000 
 291              		.text
 292              	.Letext0:
 293              		.file 2 "Drivers/CMSIS/Device/ST/STM32F1xx/Include/stm32f103xb.h"
 294              		.file 3 "/home/sarthak/.config/Code/User/globalStorage/bmd.stm32-for-vscode/@xpack-dev-tools/arm-n
 295              		.file 4 "/home/sarthak/.config/Code/User/globalStorage/bmd.stm32-for-vscode/@xpack-dev-tools/arm-n
 296              		.file 5 "Drivers/STM32F1xx_HAL_Driver/Inc/stm32f1xx_hal_def.h"
 297              		.file 6 "Drivers/STM32F1xx_HAL_Driver/Inc/stm32f1xx_hal_gpio.h"
 298              		.file 7 "Drivers/STM32F1xx_HAL_Driver/Inc/stm32f1xx_hal_dma.h"
 299              		.file 8 "Drivers/STM32F1xx_HAL_Driver/Inc/stm32f1xx_hal_i2c.h"
 300              		.file 9 "Drivers/STM32F1xx_HAL_Driver/Inc/stm32f1xx_hal_cortex.h"
 301              		.file 10 "Core/Inc/i2c.h"
 302              		.file 11 "Core/Inc/main.h"
ARM GAS  /tmp/cc7zh2ja.s 			page 9

